target datalayout = "e-m:e-p270:32:32-p271:32:32-p272:64:64-i64:64-i128:128-f80:128-n8:16:32:64-S128"
target triple = "x86_64-pc-linux-gnu"

%struct.cache_set = type { ptr, ptr, ptr, ptr }
%struct.node = type { [2 x i64], ptr, ptr, ptr, ptr, ptr, i32, i32 }

@.str.20 = private unnamed_addr constant [41 x i8] c"cacheset_add: cache chain in a bad state\00", align 1
@.str.21 = private unnamed_addr constant [35 x i8] c"cacheset_add: end of chain reached\00", align 1
@.str.22 = private unnamed_addr constant [40 x i8] c"cacheset_add: tree has got no end nodes\00", align 1

; Function Attrs: nounwind uwtable
define internal i32 @cmp(ptr noundef %0, i64 noundef %1, ptr noundef %2, i64 noundef %3) #0 {
  %5 = alloca i32, align 4
  %6 = alloca ptr, align 8
  %7 = alloca i64, align 8
  %8 = alloca ptr, align 8
  %9 = alloca i64, align 8
  store ptr %0, ptr %6, align 8
  store i64 %1, ptr %7, align 8
  store ptr %2, ptr %8, align 8
  store i64 %3, ptr %9, align 8
  %10 = load ptr, ptr %6, align 8
  %11 = getelementptr inbounds i64, ptr %10, i64 1
  %12 = load i64, ptr %11, align 8
  %13 = load ptr, ptr %8, align 8
  %14 = getelementptr inbounds i64, ptr %13, i64 1
  %15 = load i64, ptr %14, align 8
  %16 = icmp slt i64 %12, %15
  br i1 %16, label %17, label %18

17:                                               ; preds = %4
  store i32 -1, ptr %5, align 4
  br label %56

18:                                               ; preds = %4
  %19 = load ptr, ptr %6, align 8
  %20 = getelementptr inbounds i64, ptr %19, i64 1
  %21 = load i64, ptr %20, align 8
  %22 = load ptr, ptr %8, align 8
  %23 = getelementptr inbounds i64, ptr %22, i64 1
  %24 = load i64, ptr %23, align 8
  %25 = icmp sgt i64 %21, %24
  br i1 %25, label %26, label %27

26:                                               ; preds = %18
  store i32 1, ptr %5, align 4
  br label %56

27:                                               ; preds = %18
  %28 = load ptr, ptr %6, align 8
  %29 = getelementptr inbounds i64, ptr %28, i64 0
  %30 = load i64, ptr %29, align 8
  %31 = load ptr, ptr %8, align 8
  %32 = getelementptr inbounds i64, ptr %31, i64 0
  %33 = load i64, ptr %32, align 8
  %34 = icmp slt i64 %30, %33
  br i1 %34, label %35, label %36

35:                                               ; preds = %27
  store i32 -1, ptr %5, align 4
  br label %56

36:                                               ; preds = %27
  %37 = load ptr, ptr %6, align 8
  %38 = getelementptr inbounds i64, ptr %37, i64 0
  %39 = load i64, ptr %38, align 8
  %40 = load ptr, ptr %8, align 8
  %41 = getelementptr inbounds i64, ptr %40, i64 0
  %42 = load i64, ptr %41, align 8
  %43 = icmp sgt i64 %39, %42
  br i1 %43, label %44, label %45

44:                                               ; preds = %36
  store i32 1, ptr %5, align 4
  br label %56

45:                                               ; preds = %36
  %46 = load i64, ptr %7, align 8
  %47 = load i64, ptr %9, align 8
  %48 = icmp slt i64 %46, %47
  br i1 %48, label %49, label %50

49:                                               ; preds = %45
  store i32 -1, ptr %5, align 4
  br label %56

50:                                               ; preds = %45
  %51 = load i64, ptr %7, align 8
  %52 = load i64, ptr %9, align 8
  %53 = icmp sgt i64 %51, %52
  br i1 %53, label %54, label %55

54:                                               ; preds = %50
  store i32 1, ptr %5, align 4
  br label %56

55:                                               ; preds = %50
  store i32 0, ptr %5, align 4
  br label %56

56:                                               ; preds = %55, %54, %49, %44, %35, %26, %17
  %57 = load i32, ptr %5, align 4
  ret i32 %57
}

; Function Attrs: nounwind uwtable
define internal ptr @cacheset_add(ptr noundef %0, ptr noundef %1, i64 noundef %2, i32 noundef %3) #0 {
  %5 = alloca ptr, align 8
  %6 = alloca ptr, align 8
  %7 = alloca ptr, align 8
  %8 = alloca i64, align 8
  %9 = alloca i32, align 4
  %10 = alloca ptr, align 8
  %11 = alloca [2 x i64], align 16
  store ptr %0, ptr %6, align 8
  store ptr %1, ptr %7, align 8
  store i64 %2, ptr %8, align 8
  store i32 %3, ptr %9, align 4
  %12 = getelementptr inbounds [2 x i64], ptr %11, i64 0, i64 0
  %13 = load ptr, ptr %7, align 8
  call void @llvm.memcpy.p0.p0.i64(ptr align 16 %12, ptr align 1 %13, i64 16, i1 false)
  %14 = getelementptr inbounds [2 x i64], ptr %11, i64 0, i64 0
  %15 = load i64, ptr %8, align 8
  %16 = load ptr, ptr %6, align 8
  %17 = call i32 @splay(ptr noundef %14, i64 noundef %15, ptr noundef %16)
  %18 = icmp ne i32 %17, 0
  br i1 %18, label %19, label %34

19:                                               ; preds = %4
  %20 = load ptr, ptr %6, align 8
  %21 = getelementptr inbounds %struct.cache_set, ptr %20, i32 0, i32 1
  %22 = load ptr, ptr %21, align 8
  %23 = getelementptr inbounds %struct.node, ptr %22, i32 0, i32 7
  %24 = load i32, ptr %23, align 4
  %25 = load i32, ptr %9, align 4
  %26 = icmp ugt i32 %24, %25
  br i1 %26, label %27, label %33

27:                                               ; preds = %19
  %28 = load i32, ptr %9, align 4
  %29 = load ptr, ptr %6, align 8
  %30 = getelementptr inbounds %struct.cache_set, ptr %29, i32 0, i32 1
  %31 = load ptr, ptr %30, align 8
  %32 = getelementptr inbounds %struct.node, ptr %31, i32 0, i32 7
  store i32 %28, ptr %32, align 4
  br label %33

33:                                               ; preds = %27, %19
  store ptr null, ptr %5, align 8
  br label %257

34:                                               ; preds = %4
  %35 = load ptr, ptr %6, align 8
  %36 = getelementptr inbounds %struct.cache_set, ptr %35, i32 0, i32 2
  %37 = load ptr, ptr %36, align 8
  store ptr %37, ptr %10, align 8
  br label %38

38:                                               ; preds = %69, %34
  %39 = load ptr, ptr %10, align 8
  %40 = icmp ne ptr %39, null
  br i1 %40, label %41, label %70

41:                                               ; preds = %38
  %42 = load ptr, ptr %10, align 8
  %43 = getelementptr inbounds %struct.node, ptr %42, i32 0, i32 2
  %44 = load ptr, ptr %43, align 8
  %45 = icmp ne ptr %44, null
  br i1 %45, label %52, label %46

46:                                               ; preds = %41
  %47 = load ptr, ptr %10, align 8
  %48 = getelementptr inbounds %struct.node, ptr %47, i32 0, i32 1
  %49 = load ptr, ptr %48, align 8
  %50 = icmp ne ptr %49, null
  br i1 %50, label %52, label %51

51:                                               ; preds = %46
  br label %70

52:                                               ; preds = %46, %41
  %53 = load ptr, ptr %10, align 8
  %54 = getelementptr inbounds %struct.node, ptr %53, i32 0, i32 4
  %55 = load ptr, ptr %54, align 8
  %56 = icmp ne ptr %55, null
  br i1 %56, label %57, label %68

57:                                               ; preds = %52
  %58 = load ptr, ptr %10, align 8
  %59 = load ptr, ptr %10, align 8
  %60 = getelementptr inbounds %struct.node, ptr %59, i32 0, i32 4
  %61 = load ptr, ptr %60, align 8
  %62 = icmp eq ptr %58, %61
  br i1 %62, label %63, label %64

63:                                               ; preds = %57
  store ptr @.str.20, ptr %5, align 8
  br label %257

64:                                               ; preds = %57
  %65 = load ptr, ptr %10, align 8
  %66 = getelementptr inbounds %struct.node, ptr %65, i32 0, i32 4
  %67 = load ptr, ptr %66, align 8
  store ptr %67, ptr %10, align 8
  br label %69

68:                                               ; preds = %52
  store ptr @.str.21, ptr %5, align 8
  br label %257

69:                                               ; preds = %64
  br label %38

70:                                               ; preds = %51, %38
  %71 = load ptr, ptr %10, align 8
  %72 = icmp ne ptr %71, null
  br i1 %72, label %74, label %73

73:                                               ; preds = %70
  store ptr @.str.22, ptr %5, align 8
  br label %257

74:                                               ; preds = %70
  %75 = load ptr, ptr %10, align 8
  %76 = getelementptr inbounds %struct.node, ptr %75, i32 0, i32 3
  %77 = load ptr, ptr %76, align 8
  %78 = icmp ne ptr %77, null
  br i1 %78, label %79, label %98

79:                                               ; preds = %74
  %80 = load ptr, ptr %10, align 8
  %81 = getelementptr inbounds %struct.node, ptr %80, i32 0, i32 3
  %82 = load ptr, ptr %81, align 8
  %83 = getelementptr inbounds %struct.node, ptr %82, i32 0, i32 1
  %84 = load ptr, ptr %83, align 8
  %85 = load ptr, ptr %10, align 8
  %86 = icmp eq ptr %84, %85
  br i1 %86, label %87, label %92

87:                                               ; preds = %79
  %88 = load ptr, ptr %10, align 8
  %89 = getelementptr inbounds %struct.node, ptr %88, i32 0, i32 3
  %90 = load ptr, ptr %89, align 8
  %91 = getelementptr inbounds %struct.node, ptr %90, i32 0, i32 1
  store ptr null, ptr %91, align 8
  br label %97

92:                                               ; preds = %79
  %93 = load ptr, ptr %10, align 8
  %94 = getelementptr inbounds %struct.node, ptr %93, i32 0, i32 3
  %95 = load ptr, ptr %94, align 8
  %96 = getelementptr inbounds %struct.node, ptr %95, i32 0, i32 2
  store ptr null, ptr %96, align 8
  br label %97

97:                                               ; preds = %92, %87
  br label %98

98:                                               ; preds = %97, %74
  %99 = load ptr, ptr %10, align 8
  %100 = getelementptr inbounds %struct.node, ptr %99, i32 0, i32 5
  %101 = load ptr, ptr %100, align 8
  %102 = icmp ne ptr %101, null
  br i1 %102, label %103, label %111

103:                                              ; preds = %98
  %104 = load ptr, ptr %10, align 8
  %105 = getelementptr inbounds %struct.node, ptr %104, i32 0, i32 4
  %106 = load ptr, ptr %105, align 8
  %107 = load ptr, ptr %10, align 8
  %108 = getelementptr inbounds %struct.node, ptr %107, i32 0, i32 5
  %109 = load ptr, ptr %108, align 8
  %110 = getelementptr inbounds %struct.node, ptr %109, i32 0, i32 4
  store ptr %106, ptr %110, align 8
  br label %111

111:                                              ; preds = %103, %98
  %112 = load ptr, ptr %10, align 8
  %113 = getelementptr inbounds %struct.node, ptr %112, i32 0, i32 4
  %114 = load ptr, ptr %113, align 8
  %115 = icmp ne ptr %114, null
  br i1 %115, label %116, label %124

116:                                              ; preds = %111
  %117 = load ptr, ptr %10, align 8
  %118 = getelementptr inbounds %struct.node, ptr %117, i32 0, i32 5
  %119 = load ptr, ptr %118, align 8
  %120 = load ptr, ptr %10, align 8
  %121 = getelementptr inbounds %struct.node, ptr %120, i32 0, i32 4
  %122 = load ptr, ptr %121, align 8
  %123 = getelementptr inbounds %struct.node, ptr %122, i32 0, i32 5
  store ptr %119, ptr %123, align 8
  br label %124

124:                                              ; preds = %116, %111
  %125 = load ptr, ptr %6, align 8
  %126 = getelementptr inbounds %struct.cache_set, ptr %125, i32 0, i32 2
  %127 = load ptr, ptr %126, align 8
  %128 = load ptr, ptr %10, align 8
  %129 = icmp eq ptr %127, %128
  br i1 %129, label %130, label %136

130:                                              ; preds = %124
  %131 = load ptr, ptr %10, align 8
  %132 = getelementptr inbounds %struct.node, ptr %131, i32 0, i32 4
  %133 = load ptr, ptr %132, align 8
  %134 = load ptr, ptr %6, align 8
  %135 = getelementptr inbounds %struct.cache_set, ptr %134, i32 0, i32 2
  store ptr %133, ptr %135, align 8
  br label %136

136:                                              ; preds = %130, %124
  %137 = load ptr, ptr %6, align 8
  %138 = getelementptr inbounds %struct.cache_set, ptr %137, i32 0, i32 3
  %139 = load ptr, ptr %138, align 8
  %140 = load ptr, ptr %10, align 8
  %141 = getelementptr inbounds %struct.node, ptr %140, i32 0, i32 5
  store ptr %139, ptr %141, align 8
  %142 = load ptr, ptr %10, align 8
  %143 = getelementptr inbounds %struct.node, ptr %142, i32 0, i32 4
  store ptr null, ptr %143, align 8
  %144 = load ptr, ptr %10, align 8
  %145 = load ptr, ptr %6, align 8
  %146 = getelementptr inbounds %struct.cache_set, ptr %145, i32 0, i32 3
  %147 = load ptr, ptr %146, align 8
  %148 = getelementptr inbounds %struct.node, ptr %147, i32 0, i32 4
  store ptr %144, ptr %148, align 8
  %149 = load ptr, ptr %10, align 8
  %150 = load ptr, ptr %6, align 8
  %151 = getelementptr inbounds %struct.cache_set, ptr %150, i32 0, i32 3
  store ptr %149, ptr %151, align 8
  %152 = load ptr, ptr %6, align 8
  %153 = getelementptr inbounds %struct.cache_set, ptr %152, i32 0, i32 1
  %154 = load ptr, ptr %153, align 8
  %155 = icmp ne ptr %154, null
  br i1 %155, label %161, label %156

156:                                              ; preds = %136
  %157 = load ptr, ptr %10, align 8
  %158 = getelementptr inbounds %struct.node, ptr %157, i32 0, i32 1
  store ptr null, ptr %158, align 8
  %159 = load ptr, ptr %10, align 8
  %160 = getelementptr inbounds %struct.node, ptr %159, i32 0, i32 2
  store ptr null, ptr %160, align 8
  br label %234

161:                                              ; preds = %136
  %162 = getelementptr inbounds [2 x i64], ptr %11, i64 0, i64 0
  %163 = load i64, ptr %8, align 8
  %164 = load ptr, ptr %6, align 8
  %165 = getelementptr inbounds %struct.cache_set, ptr %164, i32 0, i32 1
  %166 = load ptr, ptr %165, align 8
  %167 = getelementptr inbounds %struct.node, ptr %166, i32 0, i32 0
  %168 = getelementptr inbounds [2 x i64], ptr %167, i64 0, i64 0
  %169 = load ptr, ptr %6, align 8
  %170 = getelementptr inbounds %struct.cache_set, ptr %169, i32 0, i32 1
  %171 = load ptr, ptr %170, align 8
  %172 = getelementptr inbounds %struct.node, ptr %171, i32 0, i32 6
  %173 = load i32, ptr %172, align 8
  %174 = zext i32 %173 to i64
  %175 = call i32 @cmp(ptr noundef %162, i64 noundef %163, ptr noundef %168, i64 noundef %174)
  %176 = icmp slt i32 %175, 0
  br i1 %176, label %177, label %194

177:                                              ; preds = %161
  %178 = load ptr, ptr %6, align 8
  %179 = getelementptr inbounds %struct.cache_set, ptr %178, i32 0, i32 1
  %180 = load ptr, ptr %179, align 8
  %181 = getelementptr inbounds %struct.node, ptr %180, i32 0, i32 1
  %182 = load ptr, ptr %181, align 8
  %183 = load ptr, ptr %10, align 8
  %184 = getelementptr inbounds %struct.node, ptr %183, i32 0, i32 1
  store ptr %182, ptr %184, align 8
  %185 = load ptr, ptr %6, align 8
  %186 = getelementptr inbounds %struct.cache_set, ptr %185, i32 0, i32 1
  %187 = load ptr, ptr %186, align 8
  %188 = load ptr, ptr %10, align 8
  %189 = getelementptr inbounds %struct.node, ptr %188, i32 0, i32 2
  store ptr %187, ptr %189, align 8
  %190 = load ptr, ptr %6, align 8
  %191 = getelementptr inbounds %struct.cache_set, ptr %190, i32 0, i32 1
  %192 = load ptr, ptr %191, align 8
  %193 = getelementptr inbounds %struct.node, ptr %192, i32 0, i32 1
  store ptr null, ptr %193, align 8
  br label %211

194:                                              ; preds = %161
  %195 = load ptr, ptr %6, align 8
  %196 = getelementptr inbounds %struct.cache_set, ptr %195, i32 0, i32 1
  %197 = load ptr, ptr %196, align 8
  %198 = getelementptr inbounds %struct.node, ptr %197, i32 0, i32 2
  %199 = load ptr, ptr %198, align 8
  %200 = load ptr, ptr %10, align 8
  %201 = getelementptr inbounds %struct.node, ptr %200, i32 0, i32 2
  store ptr %199, ptr %201, align 8
  %202 = load ptr, ptr %6, align 8
  %203 = getelementptr inbounds %struct.cache_set, ptr %202, i32 0, i32 1
  %204 = load ptr, ptr %203, align 8
  %205 = load ptr, ptr %10, align 8
  %206 = getelementptr inbounds %struct.node, ptr %205, i32 0, i32 1
  store ptr %204, ptr %206, align 8
  %207 = load ptr, ptr %6, align 8
  %208 = getelementptr inbounds %struct.cache_set, ptr %207, i32 0, i32 1
  %209 = load ptr, ptr %208, align 8
  %210 = getelementptr inbounds %struct.node, ptr %209, i32 0, i32 2
  store ptr null, ptr %210, align 8
  br label %211

211:                                              ; preds = %194, %177
  %212 = load ptr, ptr %10, align 8
  %213 = getelementptr inbounds %struct.node, ptr %212, i32 0, i32 1
  %214 = load ptr, ptr %213, align 8
  %215 = icmp ne ptr %214, null
  br i1 %215, label %216, label %222

216:                                              ; preds = %211
  %217 = load ptr, ptr %10, align 8
  %218 = load ptr, ptr %10, align 8
  %219 = getelementptr inbounds %struct.node, ptr %218, i32 0, i32 1
  %220 = load ptr, ptr %219, align 8
  %221 = getelementptr inbounds %struct.node, ptr %220, i32 0, i32 3
  store ptr %217, ptr %221, align 8
  br label %222

222:                                              ; preds = %216, %211
  %223 = load ptr, ptr %10, align 8
  %224 = getelementptr inbounds %struct.node, ptr %223, i32 0, i32 2
  %225 = load ptr, ptr %224, align 8
  %226 = icmp ne ptr %225, null
  br i1 %226, label %227, label %233

227:                                              ; preds = %222
  %228 = load ptr, ptr %10, align 8
  %229 = load ptr, ptr %10, align 8
  %230 = getelementptr inbounds %struct.node, ptr %229, i32 0, i32 2
  %231 = load ptr, ptr %230, align 8
  %232 = getelementptr inbounds %struct.node, ptr %231, i32 0, i32 3
  store ptr %228, ptr %232, align 8
  br label %233

233:                                              ; preds = %227, %222
  br label %234

234:                                              ; preds = %233, %156
  %235 = getelementptr inbounds [2 x i64], ptr %11, i64 0, i64 0
  %236 = load i64, ptr %235, align 16
  %237 = load ptr, ptr %10, align 8
  %238 = getelementptr inbounds %struct.node, ptr %237, i32 0, i32 0
  %239 = getelementptr inbounds [2 x i64], ptr %238, i64 0, i64 0
  store i64 %236, ptr %239, align 8
  %240 = getelementptr inbounds [2 x i64], ptr %11, i64 0, i64 1
  %241 = load i64, ptr %240, align 8
  %242 = load ptr, ptr %10, align 8
  %243 = getelementptr inbounds %struct.node, ptr %242, i32 0, i32 0
  %244 = getelementptr inbounds [2 x i64], ptr %243, i64 0, i64 1
  store i64 %241, ptr %244, align 8
  %245 = load ptr, ptr %10, align 8
  %246 = getelementptr inbounds %struct.node, ptr %245, i32 0, i32 3
  store ptr null, ptr %246, align 8
  %247 = load i64, ptr %8, align 8
  %248 = trunc i64 %247 to i32
  %249 = load ptr, ptr %10, align 8
  %250 = getelementptr inbounds %struct.node, ptr %249, i32 0, i32 6
  store i32 %248, ptr %250, align 8
  %251 = load i32, ptr %9, align 4
  %252 = load ptr, ptr %10, align 8
  %253 = getelementptr inbounds %struct.node, ptr %252, i32 0, i32 7
  store i32 %251, ptr %253, align 4
  %254 = load ptr, ptr %10, align 8
  %255 = load ptr, ptr %6, align 8
  %256 = getelementptr inbounds %struct.cache_set, ptr %255, i32 0, i32 1
  store ptr %254, ptr %256, align 8
  store ptr null, ptr %5, align 8
  br label %257

257:                                              ; preds = %234, %73, %68, %63, %33
  %258 = load ptr, ptr %5, align 8
  ret ptr %258
}