; Function Attrs: nofree norecurse nosync nounwind memory(readwrite, inaccessiblemem: none) uwtable
define internal fastcc noundef ptr @cacheset_add(ptr nocapture noundef %0, ptr nocapture noundef readonly %1, i64 noundef %2, i32 noundef %3) unnamed_addr #4 {
  %5 = alloca [2 x i64], align 16
  call void @llvm.memcpy.p0.p0.i64(ptr noundef nonnull align 16 dereferenceable(16) %5, ptr noundef nonnull align 1 dereferenceable(16) %1, i64 16, i1 false)
  %6 = call fastcc i32 @splay(ptr noundef nonnull %5, i64 noundef %2, ptr noundef %0), !range !4
  %.not = icmp eq i32 %6, 0
  br i1 %.not, label %14, label %7

7:                                                ; preds = %4
  %8 = getelementptr inbounds i8, ptr %0, i64 8
  %9 = load ptr, ptr %8, align 8
  %10 = getelementptr inbounds i8, ptr %9, i64 60
  %11 = load i32, ptr %10, align 4
  %12 = icmp ugt i32 %11, %3
  br i1 %12, label %13, label %.critedge

13:                                               ; preds = %7
  store i32 %3, ptr %10, align 4
  br label %.critedge

14:                                               ; preds = %4
  %15 = getelementptr inbounds i8, ptr %0, i64 16
  %16 = load ptr, ptr %15, align 8
  br label %17

17:                                               ; preds = %27, %14
  %.0 = phi ptr [ %16, %14 ], [ %26, %27 ]
  %.not78 = icmp eq ptr %.0, null
  br i1 %.not78, label %.critedge, label %18

18:                                               ; preds = %17
  %19 = getelementptr inbounds i8, ptr %.0, i64 24
  %20 = load ptr, ptr %19, align 8
  %.not79 = icmp eq ptr %20, null
  br i1 %.not79, label %21, label %24

21:                                               ; preds = %18
  %22 = getelementptr inbounds i8, ptr %.0, i64 16
  %23 = load ptr, ptr %22, align 8
  %.not80 = icmp eq ptr %23, null
  br i1 %.not80, label %29, label %24

24:                                               ; preds = %21, %18
  %25 = getelementptr inbounds i8, ptr %.0, i64 40
  %26 = load ptr, ptr %25, align 8
  %.not87 = icmp eq ptr %26, null
  br i1 %.not87, label %.critedge, label %27

27:                                               ; preds = %24
  %28 = icmp eq ptr %.0, %26
  br i1 %28, label %.critedge, label %17

29:                                               ; preds = %21
  %30 = getelementptr inbounds i8, ptr %.0, i64 24
  %31 = getelementptr inbounds i8, ptr %.0, i64 16
  %32 = getelementptr inbounds i8, ptr %.0, i64 32
  %33 = load ptr, ptr %32, align 8
  %.not81 = icmp eq ptr %33, null
  br i1 %.not81, label %38, label %.sink.split

.sink.split:                                      ; preds = %29
  %34 = getelementptr inbounds i8, ptr %33, i64 16
  %35 = load ptr, ptr %34, align 8
  %36 = icmp eq ptr %35, %.0
  %37 = getelementptr inbounds i8, ptr %33, i64 24
  %.sink = select i1 %36, ptr %34, ptr %37
  store ptr null, ptr %.sink, align 8
  br label %38

38:                                               ; preds = %.sink.split, %29
  %39 = getelementptr inbounds i8, ptr %.0, i64 48
  %40 = load ptr, ptr %39, align 8
  %.not82 = icmp eq ptr %40, null
  %.phi.trans.insert = getelementptr inbounds i8, ptr %.0, i64 40
  %.pre = load ptr, ptr %.phi.trans.insert, align 8
  br i1 %.not82, label %._crit_edge, label %41

41:                                               ; preds = %38
  %42 = getelementptr inbounds i8, ptr %40, i64 40
  store ptr %.pre, ptr %42, align 8
  br label %._crit_edge

._crit_edge:                                      ; preds = %38, %41
  %43 = getelementptr inbounds i8, ptr %.0, i64 40
  %.not83 = icmp eq ptr %.pre, null
  br i1 %.not83, label %47, label %44

44:                                               ; preds = %._crit_edge
  %45 = load ptr, ptr %39, align 8
  %46 = getelementptr inbounds i8, ptr %.pre, i64 48
  store ptr %45, ptr %46, align 8
  br label %47

47:                                               ; preds = %44, %._crit_edge
  %48 = load ptr, ptr %15, align 8
  %49 = icmp eq ptr %48, %.0
  br i1 %49, label %50, label %52

50:                                               ; preds = %47
  %51 = load ptr, ptr %43, align 8
  store ptr %51, ptr %15, align 8
  br label %52

52:                                               ; preds = %50, %47
  %53 = getelementptr inbounds i8, ptr %0, i64 24
  %54 = load ptr, ptr %53, align 8
  store ptr %54, ptr %39, align 8
  store ptr null, ptr %43, align 8
  %55 = load ptr, ptr %53, align 8
  %56 = getelementptr inbounds i8, ptr %55, i64 40
  store ptr %.0, ptr %56, align 8
  store ptr %.0, ptr %53, align 8
  %57 = getelementptr inbounds i8, ptr %0, i64 8
  %58 = load ptr, ptr %57, align 8
  %.not84 = icmp eq ptr %58, null
  br i1 %.not84, label %59, label %60

59:                                               ; preds = %52
  %.phi.trans.insert93 = getelementptr inbounds i8, ptr %5, i64 8
  tail call void @llvm.memset.p0.i64(ptr noundef nonnull align 8 dereferenceable(16) %31, i8 0, i64 16, i1 false)
  %.pre94 = load i64, ptr %.phi.trans.insert93, align 8
  br label %95

60:                                               ; preds = %52
  %61 = getelementptr inbounds i8, ptr %58, i64 56
  %62 = load i32, ptr %61, align 8
  %63 = zext i32 %62 to i64
  %64 = getelementptr inbounds i8, ptr %5, i64 8
  %65 = load i64, ptr %64, align 8
  %66 = getelementptr inbounds i8, ptr %58, i64 8
  %67 = load i64, ptr %66, align 8
  %68 = icmp slt i64 %65, %67
  br i1 %68, label %78, label %69

69:                                               ; preds = %60
  %70 = icmp sgt i64 %65, %67
  br i1 %70, label %cmp.exit, label %71

71:                                               ; preds = %69
  %72 = load i64, ptr %5, align 16
  %73 = load i64, ptr %58, align 8
  %74 = icmp slt i64 %72, %73
  br i1 %74, label %78, label %75

75:                                               ; preds = %71
  %76 = icmp sle i64 %72, %73
  %77 = icmp sgt i64 %63, %2
  %or.cond = select i1 %76, i1 %77, i1 false
  br i1 %or.cond, label %78, label %cmp.exit

78:                                               ; preds = %75, %60, %71
  %79 = getelementptr inbounds i8, ptr %58, i64 16
  %80 = load ptr, ptr %79, align 8
  store ptr %80, ptr %31, align 8
  %81 = load ptr, ptr %57, align 8
  store ptr %81, ptr %30, align 8
  %82 = getelementptr inbounds i8, ptr %81, i64 16
  br label %87

cmp.exit:                                         ; preds = %75, %69
  %83 = getelementptr inbounds i8, ptr %58, i64 24
  %84 = load ptr, ptr %83, align 8
  store ptr %84, ptr %30, align 8
  %85 = load ptr, ptr %57, align 8
  store ptr %85, ptr %31, align 8
  %86 = getelementptr inbounds i8, ptr %85, i64 24
  br label %87

87:                                               ; preds = %cmp.exit, %78
  %.sink98 = phi ptr [ %86, %cmp.exit ], [ %82, %78 ]
  store ptr null, ptr %.sink98, align 8
  %88 = load ptr, ptr %31, align 8
  %.not85 = icmp eq ptr %88, null
  br i1 %.not85, label %91, label %89

89:                                               ; preds = %87
  %90 = getelementptr inbounds i8, ptr %88, i64 32
  store ptr %.0, ptr %90, align 8
  br label %91

91:                                               ; preds = %89, %87
  %92 = load ptr, ptr %30, align 8
  %.not86 = icmp eq ptr %92, null
  br i1 %.not86, label %95, label %93

93:                                               ; preds = %91
  %94 = getelementptr inbounds i8, ptr %92, i64 32
  store ptr %.0, ptr %94, align 8
  br label %95

95:                                               ; preds = %91, %93, %59
  %96 = phi i64 [ %65, %91 ], [ %65, %93 ], [ %.pre94, %59 ]
  %97 = load i64, ptr %5, align 16
  store i64 %97, ptr %.0, align 8
  %98 = getelementptr inbounds i8, ptr %.0, i64 8
  store i64 %96, ptr %98, align 8
  store ptr null, ptr %32, align 8
  %99 = trunc i64 %2 to i32
  %100 = getelementptr inbounds i8, ptr %.0, i64 56
  store i32 %99, ptr %100, align 8
  %101 = getelementptr inbounds i8, ptr %.0, i64 60
  store i32 %3, ptr %101, align 4
  store ptr %.0, ptr %57, align 8
  br label %.critedge

.critedge:                                        ; preds = %17, %24, %27, %7, %13, %95
  %.069 = phi ptr [ null, %95 ], [ null, %13 ], [ null, %7 ], [ @.str.22, %17 ], [ @.str.21, %24 ], [ @.str.20, %27 ]
  ret ptr %.069
}